target datalayout = "e-m:e-p270:32:32-p271:32:32-p272:64:64-i64:64-i128:128-f80:128-n8:16:32:64-S128"
target triple = "x86_64-pc-linux-gnu"

%"struct.Verilated::ThreadLocal" = type <{ ptr, i32, i32, ptr, ptr, i32, [4 x i8] }>
%"struct.VlWorkerThread::ExecRec" = type <{ ptr, ptr, i8, [7 x i8] }>

@_ZN9Verilated3t_sE = external thread_local global %"struct.Verilated::ThreadLocal", align 8
@_ZN9Verilated14s_lastContextpE = external global ptr, align 8

; Function Attrs: mustprogress nounwind uwtable
define linkonce_odr dso_local void @_ZN14VlWorkerThread7ExecRecC2Ev(ptr noundef nonnull align 8 dereferenceable(24) %0) unnamed_addr #0 comdat align 2 {
  %2 = alloca ptr, align 8
  store ptr %0, ptr %2, align 8
  %3 = load ptr, ptr %2, align 8
  %4 = getelementptr inbounds %"struct.VlWorkerThread::ExecRec", ptr %3, i32 0, i32 0
  store ptr null, ptr %4, align 8
  %5 = getelementptr inbounds %"struct.VlWorkerThread::ExecRec", ptr %3, i32 0, i32 1
  store ptr null, ptr %5, align 8
  %6 = getelementptr inbounds %"struct.VlWorkerThread::ExecRec", ptr %3, i32 0, i32 2
  store i8 0, ptr %6, align 8
  ret void
}

; Function Attrs: mustprogress nounwind uwtable
define linkonce_odr dso_local void @_ZN9Verilated12lastContextpEP16VerilatedContext(ptr noundef %0) #0 comdat align 2 {
  %2 = alloca ptr, align 8
  store ptr %0, ptr %2, align 8
  %3 = load ptr, ptr %2, align 8
  store ptr %3, ptr @_ZN9Verilated14s_lastContextpE, align 8
  ret void
}

; Function Attrs: uwtable
define linkonce_odr hidden noundef ptr @_ZTWN9Verilated3t_sE() #12 comdat {
  %1 = icmp ne ptr @_ZTHN9Verilated3t_sE, null
  br i1 %1, label %2, label %3

2:                                                ; preds = %0
  call void @_ZTHN9Verilated3t_sE()
  br label %3

3:                                                ; preds = %2, %0
  %4 = call align 8 ptr @llvm.threadlocal.address.p0(ptr align 8 @_ZN9Verilated3t_sE)
  ret ptr %4
}

; Function Attrs: mustprogress uwtable
define dso_local void @_ZN14VlWorkerThread10workerLoopEv(ptr noundef nonnull align 8 dereferenceable(152) %0) #1 align 2 {
  %2 = alloca ptr, align 8
  %3 = alloca %"struct.VlWorkerThread::ExecRec", align 8
  store ptr %0, ptr %2, align 8
  %4 = load ptr, ptr %2, align 8
  call void @_ZN14VlWorkerThread7ExecRecC2Ev(ptr noundef nonnull align 8 dereferenceable(24) %3) #16
  call void @_ZN14VlWorkerThread9dequeWorkILb0EEEvPNS_7ExecRecE(ptr noundef nonnull align 8 dereferenceable(152) %4, ptr noundef %3)
  br label %5

5:                                                ; preds = %12, %1
  %6 = getelementptr inbounds %"struct.VlWorkerThread::ExecRec", ptr %3, i32 0, i32 0
  %7 = load ptr, ptr %6, align 8
  %8 = icmp eq ptr %7, @_ZL12shutdownTaskPvb
  %9 = xor i1 %8, true
  %10 = xor i1 %9, true
  br i1 %10, label %11, label %12

11:                                               ; preds = %5
  br label %20

12:                                               ; preds = %5
  %13 = getelementptr inbounds %"struct.VlWorkerThread::ExecRec", ptr %3, i32 0, i32 0
  %14 = load ptr, ptr %13, align 8
  %15 = getelementptr inbounds %"struct.VlWorkerThread::ExecRec", ptr %3, i32 0, i32 1
  %16 = load ptr, ptr %15, align 8
  %17 = getelementptr inbounds %"struct.VlWorkerThread::ExecRec", ptr %3, i32 0, i32 2
  %18 = load i8, ptr %17, align 8
  %19 = trunc i8 %18 to i1
  call void %14(ptr noundef %16, i1 noundef zeroext %19)
  call void @_ZN14VlWorkerThread9dequeWorkILb1EEEvPNS_7ExecRecE(ptr noundef nonnull align 8 dereferenceable(152) %4, ptr noundef %3)
  br label %5, !llvm.loop !9

20:                                               ; preds = %11
  ret void
}

; Function Attrs: mustprogress uwtable
define linkonce_odr dso_local void @_ZN9Verilated14threadContextpEP16VerilatedContext(ptr noundef %0) #1 comdat align 2 {
  %2 = alloca ptr, align 8
  store ptr %0, ptr %2, align 8
  %3 = load ptr, ptr %2, align 8
  %4 = call ptr @_ZTWN9Verilated3t_sE()
  %5 = getelementptr inbounds %"struct.Verilated::ThreadLocal", ptr %4, i32 0, i32 0
  store ptr %3, ptr %5, align 8
  %6 = load ptr, ptr %2, align 8
  call void @_ZN9Verilated12lastContextpEP16VerilatedContext(ptr noundef %6)
  ret void
}

; Function Attrs: mustprogress uwtable
define dso_local void @_ZN14VlWorkerThread11startWorkerEPS_P16VerilatedContext(ptr noundef %0, ptr noundef %1) #1 align 2 {
  %3 = alloca ptr, align 8
  %4 = alloca ptr, align 8
  store ptr %0, ptr %3, align 8
  store ptr %1, ptr %4, align 8
  %5 = load ptr, ptr %4, align 8
  call void @_ZN9Verilated14threadContextpEP16VerilatedContext(ptr noundef %5)
  %6 = load ptr, ptr %3, align 8
  call void @_ZN14VlWorkerThread10workerLoopEv(ptr noundef nonnull align 8 dereferenceable(152) %6)
  ret void
}