; Function Attrs: uwtable
define dso_local void @_ZN14VlWorkerThread11startWorkerEPS_P16VerilatedContext(ptr noundef %0, ptr noundef %1) #3 align 2 {
  %3 = alloca %"struct.VlWorkerThread::ExecRec", align 8
  %.not.i.i = icmp eq ptr @_ZTHN9Verilated3t_sE, null
  br i1 %.not.i.i, label %_ZN9Verilated14threadContextpEP16VerilatedContext.exit, label %4

4:                                                ; preds = %2
  tail call void @_ZTHN9Verilated3t_sE()
  br label %_ZN9Verilated14threadContextpEP16VerilatedContext.exit

_ZN9Verilated14threadContextpEP16VerilatedContext.exit: ; preds = %2, %4
  %5 = tail call noundef align 8 ptr @llvm.threadlocal.address.p0(ptr align 8 @_ZN9Verilated3t_sE)
  store ptr %1, ptr %5, align 8
  store ptr %1, ptr @_ZN9Verilated14s_lastContextpE, align 8
  call void @llvm.lifetime.start.p0(i64 24, ptr nonnull %3)
  call void @llvm.memset.p0.i64(ptr noundef nonnull align 8 dereferenceable(17) %3, i8 0, i64 17, i1 false)
  call void @_ZN14VlWorkerThread9dequeWorkILb0EEEvPNS_7ExecRecE(ptr noundef nonnull align 8 dereferenceable(152) %0, ptr noundef nonnull %3)
  %6 = load ptr, ptr %3, align 8
  %7 = icmp eq ptr %6, @_ZL12shutdownTaskPvb
  br i1 %7, label %_ZN14VlWorkerThread10workerLoopEv.exit, label %.lr.ph.i

.lr.ph.i:                                         ; preds = %_ZN9Verilated14threadContextpEP16VerilatedContext.exit
  %8 = getelementptr inbounds i8, ptr %3, i64 8
  %9 = getelementptr inbounds i8, ptr %3, i64 16
  br label %10

10:                                               ; preds = %10, %.lr.ph.i
  %11 = phi ptr [ %6, %.lr.ph.i ], [ %15, %10 ]
  %12 = load ptr, ptr %8, align 8
  %13 = load i8, ptr %9, align 8
  %14 = trunc i8 %13 to i1
  call void %11(ptr noundef %12, i1 noundef zeroext %14)
  call void @_ZN14VlWorkerThread9dequeWorkILb1EEEvPNS_7ExecRecE(ptr noundef nonnull align 8 dereferenceable(152) %0, ptr noundef nonnull %3)
  %15 = load ptr, ptr %3, align 8
  %16 = icmp eq ptr %15, @_ZL12shutdownTaskPvb
  br i1 %16, label %_ZN14VlWorkerThread10workerLoopEv.exit, label %10, !llvm.loop !8

_ZN14VlWorkerThread10workerLoopEv.exit:           ; preds = %10, %_ZN9Verilated14threadContextpEP16VerilatedContext.exit
  call void @llvm.lifetime.end.p0(i64 24, ptr nonnull %3)
  ret void
}